target datalayout = "e-m:e-p270:32:32-p271:32:32-p272:64:64-i64:64-i128:128-f80:128-n8:16:32:64-S128"
target triple = "x86_64-pc-linux-gnu"

%struct.SDL_WindowData = type { ptr, ptr, ptr, ptr, ptr, ptr, ptr, %union.anon, i32, i32, i32, i32, ptr, ptr, ptr, ptr, ptr, ptr, ptr, ptr, ptr, ptr, ptr, ptr, ptr, ptr, %struct.SDL_AtomicInt, ptr, i32, ptr, double, ptr, i32, i32, i32, i32, %struct.anon.3, %struct.anon.4, %struct.anon.5, %struct.anon.6, %struct.anon.7, %struct.anon.8, %struct.anon.9, i32, i32, i32, i64, i32, i32, i8, i8, i8, i8, i8, i8, i8, i8, i8, i8, i8, i8, i8, i8, i32, %struct.wl_list }
%union.anon = type { %struct.anon }
%struct.anon = type { ptr, %union.anon.0, i8 }
%union.anon.0 = type { %struct.anon.2 }
%struct.anon.2 = type { ptr, ptr }
%struct.SDL_AtomicInt = type { i32 }
%struct.anon.3 = type { double, double }
%struct.anon.4 = type { i32, i32, i32, i32 }
%struct.anon.5 = type { i32, i32, i32, i32 }
%struct.anon.6 = type { i32, i32 }
%struct.anon.7 = type { i32, i32 }
%struct.anon.8 = type { i32, i32 }
%struct.anon.9 = type { i32, i32, i8 }
%struct.wl_list = type { ptr, ptr }
%struct.SDL_Window = type { i32, ptr, ptr, i32, i32, i32, i32, i32, i32, i32, i32, float, float, i32, i32, i64, i64, float, i8, i8, i32, i32, %struct.SDL_Rect, %struct.SDL_Rect, %struct.SDL_Rect, i8, i8, i8, %struct.SDL_DisplayMode, %struct.SDL_DisplayMode, %struct.SDL_HDROutputProperties, float, ptr, i8, i8, i8, i8, i8, i8, i8, i8, i8, i32, i32, i32, i32, %struct.SDL_Rect, i32, i8, %struct.SDL_Rect, i32, %struct.SDL_Rect, ptr, ptr, i32, float, i32, i32, ptr, ptr, ptr, ptr, ptr, ptr, ptr, ptr, ptr }
%struct.SDL_DisplayMode = type { i32, i32, i32, i32, float, float, i32, i32, ptr }
%struct.SDL_HDROutputProperties = type { float, float }
%struct.SDL_Rect = type { i32, i32, i32, i32 }

@WAYLAND_wl_proxy_destroy = external global ptr, align 8

; Function Attrs: inlinehint nounwind uwtable
define internal void @wl_callback_destroy(ptr noundef %0) #4 {
  %2 = alloca ptr, align 8
  store ptr %0, ptr %2, align 8
  %3 = load ptr, ptr @WAYLAND_wl_proxy_destroy, align 8
  %4 = load ptr, ptr %2, align 8
  call void %3(ptr noundef %4)
  ret void
}

; Function Attrs: nounwind uwtable
define internal void @show_hide_sync_handler(ptr noundef %0, ptr noundef %1, i32 noundef %2) #0 {
  %4 = alloca ptr, align 8
  %5 = alloca ptr, align 8
  %6 = alloca i32, align 4
  %7 = alloca i32, align 4
  %8 = alloca ptr, align 8
  %9 = alloca ptr, align 8
  store ptr %0, ptr %4, align 8
  store ptr %1, ptr %5, align 8
  store i32 %2, ptr %6, align 4
  call void @llvm.lifetime.start.p0(i64 4, ptr %7) #10
  %10 = load ptr, ptr %4, align 8
  %11 = ptrtoint ptr %10 to i64
  %12 = trunc i64 %11 to i32
  store i32 %12, ptr %7, align 4
  call void @llvm.lifetime.start.p0(i64 8, ptr %8) #10
  %13 = load i32, ptr %7, align 4
  %14 = call ptr @SDL_GetWindowFromID_REAL(i32 noundef %13)
  store ptr %14, ptr %8, align 8
  %15 = load ptr, ptr %8, align 8
  %16 = icmp ne ptr %15, null
  br i1 %16, label %17, label %28

17:                                               ; preds = %3
  %18 = load ptr, ptr %8, align 8
  %19 = getelementptr inbounds nuw %struct.SDL_Window, ptr %18, i32 0, i32 59
  %20 = load ptr, ptr %19, align 8
  %21 = icmp ne ptr %20, null
  br i1 %21, label %22, label %28

22:                                               ; preds = %17
  call void @llvm.lifetime.start.p0(i64 8, ptr %9) #10
  %23 = load ptr, ptr %8, align 8
  %24 = getelementptr inbounds nuw %struct.SDL_Window, ptr %23, i32 0, i32 59
  %25 = load ptr, ptr %24, align 8
  store ptr %25, ptr %9, align 8
  %26 = load ptr, ptr %9, align 8
  %27 = getelementptr inbounds nuw %struct.SDL_WindowData, ptr %26, i32 0, i32 59
  store i8 0, ptr %27, align 2
  call void @llvm.lifetime.end.p0(i64 8, ptr %9) #10
  br label %28

28:                                               ; preds = %22, %17, %3
  %29 = load ptr, ptr %5, align 8
  call void @wl_callback_destroy(ptr noundef %29)
  call void @llvm.lifetime.end.p0(i64 8, ptr %8) #10
  call void @llvm.lifetime.end.p0(i64 4, ptr %7) #10
  ret void
}