; Function Attrs: nounwind uwtable
define internal void @show_hide_sync_handler(ptr noundef %0, ptr noundef %1, i32 %2) #0 {
  %4 = ptrtoint ptr %0 to i64
  %5 = trunc i64 %4 to i32
  %6 = tail call ptr @SDL_GetWindowFromID_REAL(i32 noundef %5) #15
  %.not = icmp eq ptr %6, null
  br i1 %.not, label %12, label %7

7:                                                ; preds = %3
  %8 = getelementptr inbounds nuw i8, ptr %6, i64 392
  %9 = load ptr, ptr %8, align 8
  %.not7 = icmp eq ptr %9, null
  br i1 %.not7, label %12, label %10

10:                                               ; preds = %7
  %11 = getelementptr inbounds nuw i8, ptr %9, i64 402
  store i8 0, ptr %11, align 2
  br label %12

12:                                               ; preds = %10, %7, %3
  %13 = load ptr, ptr @WAYLAND_wl_proxy_destroy, align 8
  tail call void %13(ptr noundef %1) #15
  ret void
}